target datalayout = "e-m:e-p270:32:32-p271:32:32-p272:64:64-i64:64-i128:128-f80:128-n8:16:32:64-S128"
target triple = "x86_64-pc-linux-gnu"

%struct.NSVGparser = type { [128 x %struct.NSVGattrib], i32, ptr, i32, i32, ptr, ptr, ptr, ptr, float, float, float, float, i32, i32, i32, float, i8, i8 }
%struct.NSVGattrib = type { [64 x i8], [6 x float], i32, i32, float, float, float, [64 x i8], [64 x i8], float, float, [8 x float], i32, i8, i8, float, i8, float, i32, float, float, i8, i8, i8 }
%struct.NSVGpath = type { ptr, i32, i8, [4 x float], ptr }

; Function Attrs: inlinehint nounwind uwtable
define internal float @nsvg__maxf(float noundef %0, float noundef %1) #10 {
  %3 = alloca float, align 4
  %4 = alloca float, align 4
  store float %0, ptr %3, align 4, !tbaa !23
  store float %1, ptr %4, align 4, !tbaa !23
  %5 = load float, ptr %3, align 4, !tbaa !23
  %6 = load float, ptr %4, align 4, !tbaa !23
  %7 = fcmp ogt float %5, %6
  br i1 %7, label %8, label %10

8:                                                ; preds = %2
  %9 = load float, ptr %3, align 4, !tbaa !23
  br label %12

10:                                               ; preds = %2
  %11 = load float, ptr %4, align 4, !tbaa !23
  br label %12

12:                                               ; preds = %10, %8
  %13 = phi float [ %9, %8 ], [ %11, %10 ]
  ret float %13
}

; Function Attrs: inlinehint nounwind uwtable
define internal float @nsvg__minf(float noundef %0, float noundef %1) #10 {
  %3 = alloca float, align 4
  %4 = alloca float, align 4
  store float %0, ptr %3, align 4, !tbaa !23
  store float %1, ptr %4, align 4, !tbaa !23
  %5 = load float, ptr %3, align 4, !tbaa !23
  %6 = load float, ptr %4, align 4, !tbaa !23
  %7 = fcmp olt float %5, %6
  br i1 %7, label %8, label %10

8:                                                ; preds = %2
  %9 = load float, ptr %3, align 4, !tbaa !23
  br label %12

10:                                               ; preds = %2
  %11 = load float, ptr %4, align 4, !tbaa !23
  br label %12

12:                                               ; preds = %10, %8
  %13 = phi float [ %9, %8 ], [ %11, %10 ]
  ret float %13
}

; Function Attrs: nounwind uwtable
define internal void @nsvg__xformPoint(ptr noundef %0, ptr noundef %1, float noundef %2, float noundef %3, ptr noundef %4) #0 {
  %6 = alloca ptr, align 8
  %7 = alloca ptr, align 8
  %8 = alloca float, align 4
  %9 = alloca float, align 4
  %10 = alloca ptr, align 8
  store ptr %0, ptr %6, align 8, !tbaa !77
  store ptr %1, ptr %7, align 8, !tbaa !77
  store float %2, ptr %8, align 4, !tbaa !23
  store float %3, ptr %9, align 4, !tbaa !23
  store ptr %4, ptr %10, align 8, !tbaa !77
  %11 = load float, ptr %8, align 4, !tbaa !23
  %12 = load ptr, ptr %10, align 8, !tbaa !77
  %13 = getelementptr inbounds float, ptr %12, i64 0
  %14 = load float, ptr %13, align 4, !tbaa !23
  %15 = load float, ptr %9, align 4, !tbaa !23
  %16 = load ptr, ptr %10, align 8, !tbaa !77
  %17 = getelementptr inbounds float, ptr %16, i64 2
  %18 = load float, ptr %17, align 4, !tbaa !23
  %19 = fmul float %15, %18
  %20 = call float @llvm.fmuladd.f32(float %11, float %14, float %19)
  %21 = load ptr, ptr %10, align 8, !tbaa !77
  %22 = getelementptr inbounds float, ptr %21, i64 4
  %23 = load float, ptr %22, align 4, !tbaa !23
  %24 = fadd float %20, %23
  %25 = load ptr, ptr %6, align 8, !tbaa !77
  store float %24, ptr %25, align 4, !tbaa !23
  %26 = load float, ptr %8, align 4, !tbaa !23
  %27 = load ptr, ptr %10, align 8, !tbaa !77
  %28 = getelementptr inbounds float, ptr %27, i64 1
  %29 = load float, ptr %28, align 4, !tbaa !23
  %30 = load float, ptr %9, align 4, !tbaa !23
  %31 = load ptr, ptr %10, align 8, !tbaa !77
  %32 = getelementptr inbounds float, ptr %31, i64 3
  %33 = load float, ptr %32, align 4, !tbaa !23
  %34 = fmul float %30, %33
  %35 = call float @llvm.fmuladd.f32(float %26, float %29, float %34)
  %36 = load ptr, ptr %10, align 8, !tbaa !77
  %37 = getelementptr inbounds float, ptr %36, i64 5
  %38 = load float, ptr %37, align 4, !tbaa !23
  %39 = fadd float %35, %38
  %40 = load ptr, ptr %7, align 8, !tbaa !77
  store float %39, ptr %40, align 4, !tbaa !23
  ret void
}

; Function Attrs: nounwind uwtable
define internal ptr @nsvg__getAttr(ptr noundef %0) #0 {
  %2 = alloca ptr, align 8
  store ptr %0, ptr %2, align 8, !tbaa !27
  %3 = load ptr, ptr %2, align 8, !tbaa !27
  %4 = getelementptr inbounds nuw %struct.NSVGparser, ptr %3, i32 0, i32 0
  %5 = load ptr, ptr %2, align 8, !tbaa !27
  %6 = getelementptr inbounds nuw %struct.NSVGparser, ptr %5, i32 0, i32 1
  %7 = load i32, ptr %6, align 8, !tbaa !216
  %8 = sext i32 %7 to i64
  %9 = getelementptr inbounds [128 x %struct.NSVGattrib], ptr %4, i64 0, i64 %8
  ret ptr %9
}

; Function Attrs: nounwind uwtable
define internal void @nsvg__addPath(ptr noundef %0, i8 noundef signext %1) #0 {
  %3 = alloca ptr, align 8
  %4 = alloca i8, align 1
  %5 = alloca ptr, align 8
  %6 = alloca ptr, align 8
  %7 = alloca [4 x float], align 16
  %8 = alloca ptr, align 8
  %9 = alloca i32, align 4
  %10 = alloca i32, align 4
  store ptr %0, ptr %3, align 8, !tbaa !27
  store i8 %1, ptr %4, align 1, !tbaa !12
  call void @llvm.lifetime.start.p0(i64 8, ptr %5) #11
  %11 = load ptr, ptr %3, align 8, !tbaa !27
  %12 = call ptr @nsvg__getAttr(ptr noundef %11)
  store ptr %12, ptr %5, align 8, !tbaa !205
  call void @llvm.lifetime.start.p0(i64 8, ptr %6) #11
  store ptr null, ptr %6, align 8, !tbaa !73
  call void @llvm.lifetime.start.p0(i64 16, ptr %7) #11
  call void @llvm.lifetime.start.p0(i64 8, ptr %8) #11
  call void @llvm.lifetime.start.p0(i64 4, ptr %9) #11
  %13 = load ptr, ptr %3, align 8, !tbaa !27
  %14 = getelementptr inbounds nuw %struct.NSVGparser, ptr %13, i32 0, i32 3
  %15 = load i32, ptr %14, align 8, !tbaa !219
  %16 = icmp slt i32 %15, 4
  br i1 %16, label %17, label %18

17:                                               ; preds = %2
  store i32 1, ptr %10, align 4
  br label %225

18:                                               ; preds = %2
  %19 = load i8, ptr %4, align 1, !tbaa !12
  %20 = icmp ne i8 %19, 0
  br i1 %20, label %21, label %33

21:                                               ; preds = %18
  %22 = load ptr, ptr %3, align 8, !tbaa !27
  %23 = load ptr, ptr %3, align 8, !tbaa !27
  %24 = getelementptr inbounds nuw %struct.NSVGparser, ptr %23, i32 0, i32 2
  %25 = load ptr, ptr %24, align 8, !tbaa !88
  %26 = getelementptr inbounds float, ptr %25, i64 0
  %27 = load float, ptr %26, align 4, !tbaa !23
  %28 = load ptr, ptr %3, align 8, !tbaa !27
  %29 = getelementptr inbounds nuw %struct.NSVGparser, ptr %28, i32 0, i32 2
  %30 = load ptr, ptr %29, align 8, !tbaa !88
  %31 = getelementptr inbounds float, ptr %30, i64 1
  %32 = load float, ptr %31, align 4, !tbaa !23
  call void @nsvg__lineTo(ptr noundef %22, float noundef %27, float noundef %32)
  br label %33

33:                                               ; preds = %21, %18
  %34 = load ptr, ptr %3, align 8, !tbaa !27
  %35 = getelementptr inbounds nuw %struct.NSVGparser, ptr %34, i32 0, i32 3
  %36 = load i32, ptr %35, align 8, !tbaa !219
  %37 = srem i32 %36, 3
  %38 = icmp ne i32 %37, 1
  br i1 %38, label %39, label %40

39:                                               ; preds = %33
  store i32 1, ptr %10, align 4
  br label %225

40:                                               ; preds = %33
  %41 = call noalias ptr @malloc(i64 noundef 40) #12
  store ptr %41, ptr %6, align 8, !tbaa !73
  %42 = load ptr, ptr %6, align 8, !tbaa !73
  %43 = icmp eq ptr %42, null
  br i1 %43, label %44, label %45

44:                                               ; preds = %40
  br label %210

45:                                               ; preds = %40
  %46 = load ptr, ptr %6, align 8, !tbaa !73
  call void @llvm.memset.p0.i64(ptr align 8 %46, i8 0, i64 40, i1 false)
  %47 = load ptr, ptr %3, align 8, !tbaa !27
  %48 = getelementptr inbounds nuw %struct.NSVGparser, ptr %47, i32 0, i32 3
  %49 = load i32, ptr %48, align 8, !tbaa !219
  %50 = mul nsw i32 %49, 2
  %51 = sext i32 %50 to i64
  %52 = mul i64 %51, 4
  %53 = call noalias ptr @malloc(i64 noundef %52) #12
  %54 = load ptr, ptr %6, align 8, !tbaa !73
  %55 = getelementptr inbounds nuw %struct.NSVGpath, ptr %54, i32 0, i32 0
  store ptr %53, ptr %55, align 8, !tbaa !76
  %56 = load ptr, ptr %6, align 8, !tbaa !73
  %57 = getelementptr inbounds nuw %struct.NSVGpath, ptr %56, i32 0, i32 0
  %58 = load ptr, ptr %57, align 8, !tbaa !76
  %59 = icmp eq ptr %58, null
  br i1 %59, label %60, label %61

60:                                               ; preds = %45
  br label %210

61:                                               ; preds = %45
  %62 = load i8, ptr %4, align 1, !tbaa !12
  %63 = load ptr, ptr %6, align 8, !tbaa !73
  %64 = getelementptr inbounds nuw %struct.NSVGpath, ptr %63, i32 0, i32 2
  store i8 %62, ptr %64, align 4, !tbaa !94
  %65 = load ptr, ptr %3, align 8, !tbaa !27
  %66 = getelementptr inbounds nuw %struct.NSVGparser, ptr %65, i32 0, i32 3
  %67 = load i32, ptr %66, align 8, !tbaa !219
  %68 = load ptr, ptr %6, align 8, !tbaa !73
  %69 = getelementptr inbounds nuw %struct.NSVGpath, ptr %68, i32 0, i32 1
  store i32 %67, ptr %69, align 8, !tbaa !74
  store i32 0, ptr %9, align 4, !tbaa !10
  br label %70

70:                                               ; preds = %112, %61
  %71 = load i32, ptr %9, align 4, !tbaa !10
  %72 = load ptr, ptr %3, align 8, !tbaa !27
  %73 = getelementptr inbounds nuw %struct.NSVGparser, ptr %72, i32 0, i32 3
  %74 = load i32, ptr %73, align 8, !tbaa !219
  %75 = icmp slt i32 %71, %74
  br i1 %75, label %76, label %115

76:                                               ; preds = %70
  %77 = load ptr, ptr %6, align 8, !tbaa !73
  %78 = getelementptr inbounds nuw %struct.NSVGpath, ptr %77, i32 0, i32 0
  %79 = load ptr, ptr %78, align 8, !tbaa !76
  %80 = load i32, ptr %9, align 4, !tbaa !10
  %81 = mul nsw i32 %80, 2
  %82 = sext i32 %81 to i64
  %83 = getelementptr inbounds float, ptr %79, i64 %82
  %84 = load ptr, ptr %6, align 8, !tbaa !73
  %85 = getelementptr inbounds nuw %struct.NSVGpath, ptr %84, i32 0, i32 0
  %86 = load ptr, ptr %85, align 8, !tbaa !76
  %87 = load i32, ptr %9, align 4, !tbaa !10
  %88 = mul nsw i32 %87, 2
  %89 = add nsw i32 %88, 1
  %90 = sext i32 %89 to i64
  %91 = getelementptr inbounds float, ptr %86, i64 %90
  %92 = load ptr, ptr %3, align 8, !tbaa !27
  %93 = getelementptr inbounds nuw %struct.NSVGparser, ptr %92, i32 0, i32 2
  %94 = load ptr, ptr %93, align 8, !tbaa !88
  %95 = load i32, ptr %9, align 4, !tbaa !10
  %96 = mul nsw i32 %95, 2
  %97 = sext i32 %96 to i64
  %98 = getelementptr inbounds float, ptr %94, i64 %97
  %99 = load float, ptr %98, align 4, !tbaa !23
  %100 = load ptr, ptr %3, align 8, !tbaa !27
  %101 = getelementptr inbounds nuw %struct.NSVGparser, ptr %100, i32 0, i32 2
  %102 = load ptr, ptr %101, align 8, !tbaa !88
  %103 = load i32, ptr %9, align 4, !tbaa !10
  %104 = mul nsw i32 %103, 2
  %105 = add nsw i32 %104, 1
  %106 = sext i32 %105 to i64
  %107 = getelementptr inbounds float, ptr %102, i64 %106
  %108 = load float, ptr %107, align 4, !tbaa !23
  %109 = load ptr, ptr %5, align 8, !tbaa !205
  %110 = getelementptr inbounds nuw %struct.NSVGattrib, ptr %109, i32 0, i32 1
  %111 = getelementptr inbounds [6 x float], ptr %110, i64 0, i64 0
  call void @nsvg__xformPoint(ptr noundef %83, ptr noundef %91, float noundef %99, float noundef %108, ptr noundef %111)
  br label %112

112:                                              ; preds = %76
  %113 = load i32, ptr %9, align 4, !tbaa !10
  %114 = add nsw i32 %113, 1
  store i32 %114, ptr %9, align 4, !tbaa !10
  br label %70, !llvm.loop !277

115:                                              ; preds = %70
  store i32 0, ptr %9, align 4, !tbaa !10
  br label %116

116:                                              ; preds = %198, %115
  %117 = load i32, ptr %9, align 4, !tbaa !10
  %118 = load ptr, ptr %6, align 8, !tbaa !73
  %119 = getelementptr inbounds nuw %struct.NSVGpath, ptr %118, i32 0, i32 1
  %120 = load i32, ptr %119, align 8, !tbaa !74
  %121 = sub nsw i32 %120, 1
  %122 = icmp slt i32 %117, %121
  br i1 %122, label %123, label %201

123:                                              ; preds = %116
  %124 = load ptr, ptr %6, align 8, !tbaa !73
  %125 = getelementptr inbounds nuw %struct.NSVGpath, ptr %124, i32 0, i32 0
  %126 = load ptr, ptr %125, align 8, !tbaa !76
  %127 = load i32, ptr %9, align 4, !tbaa !10
  %128 = mul nsw i32 %127, 2
  %129 = sext i32 %128 to i64
  %130 = getelementptr inbounds float, ptr %126, i64 %129
  store ptr %130, ptr %8, align 8, !tbaa !77
  %131 = getelementptr inbounds [4 x float], ptr %7, i64 0, i64 0
  %132 = load ptr, ptr %8, align 8, !tbaa !77
  call void @nsvg__curveBounds(ptr noundef %131, ptr noundef %132)
  %133 = load i32, ptr %9, align 4, !tbaa !10
  %134 = icmp eq i32 %133, 0
  br i1 %134, label %135, label %156

135:                                              ; preds = %123
  %136 = getelementptr inbounds [4 x float], ptr %7, i64 0, i64 0
  %137 = load float, ptr %136, align 16, !tbaa !23
  %138 = load ptr, ptr %6, align 8, !tbaa !73
  %139 = getelementptr inbounds nuw %struct.NSVGpath, ptr %138, i32 0, i32 3
  %140 = getelementptr inbounds [4 x float], ptr %139, i64 0, i64 0
  store float %137, ptr %140, align 8, !tbaa !23
  %141 = getelementptr inbounds [4 x float], ptr %7, i64 0, i64 1
  %142 = load float, ptr %141, align 4, !tbaa !23
  %143 = load ptr, ptr %6, align 8, !tbaa !73
  %144 = getelementptr inbounds nuw %struct.NSVGpath, ptr %143, i32 0, i32 3
  %145 = getelementptr inbounds [4 x float], ptr %144, i64 0, i64 1
  store float %142, ptr %145, align 4, !tbaa !23
  %146 = getelementptr inbounds [4 x float], ptr %7, i64 0, i64 2
  %147 = load float, ptr %146, align 8, !tbaa !23
  %148 = load ptr, ptr %6, align 8, !tbaa !73
  %149 = getelementptr inbounds nuw %struct.NSVGpath, ptr %148, i32 0, i32 3
  %150 = getelementptr inbounds [4 x float], ptr %149, i64 0, i64 2
  store float %147, ptr %150, align 8, !tbaa !23
  %151 = getelementptr inbounds [4 x float], ptr %7, i64 0, i64 3
  %152 = load float, ptr %151, align 4, !tbaa !23
  %153 = load ptr, ptr %6, align 8, !tbaa !73
  %154 = getelementptr inbounds nuw %struct.NSVGpath, ptr %153, i32 0, i32 3
  %155 = getelementptr inbounds [4 x float], ptr %154, i64 0, i64 3
  store float %152, ptr %155, align 4, !tbaa !23
  br label %197

156:                                              ; preds = %123
  %157 = load ptr, ptr %6, align 8, !tbaa !73
  %158 = getelementptr inbounds nuw %struct.NSVGpath, ptr %157, i32 0, i32 3
  %159 = getelementptr inbounds [4 x float], ptr %158, i64 0, i64 0
  %160 = load float, ptr %159, align 8, !tbaa !23
  %161 = getelementptr inbounds [4 x float], ptr %7, i64 0, i64 0
  %162 = load float, ptr %161, align 16, !tbaa !23
  %163 = call float @nsvg__minf(float noundef %160, float noundef %162)
  %164 = load ptr, ptr %6, align 8, !tbaa !73
  %165 = getelementptr inbounds nuw %struct.NSVGpath, ptr %164, i32 0, i32 3
  %166 = getelementptr inbounds [4 x float], ptr %165, i64 0, i64 0
  store float %163, ptr %166, align 8, !tbaa !23
  %167 = load ptr, ptr %6, align 8, !tbaa !73
  %168 = getelementptr inbounds nuw %struct.NSVGpath, ptr %167, i32 0, i32 3
  %169 = getelementptr inbounds [4 x float], ptr %168, i64 0, i64 1
  %170 = load float, ptr %169, align 4, !tbaa !23
  %171 = getelementptr inbounds [4 x float], ptr %7, i64 0, i64 1
  %172 = load float, ptr %171, align 4, !tbaa !23
  %173 = call float @nsvg__minf(float noundef %170, float noundef %172)
  %174 = load ptr, ptr %6, align 8, !tbaa !73
  %175 = getelementptr inbounds nuw %struct.NSVGpath, ptr %174, i32 0, i32 3
  %176 = getelementptr inbounds [4 x float], ptr %175, i64 0, i64 1
  store float %173, ptr %176, align 4, !tbaa !23
  %177 = load ptr, ptr %6, align 8, !tbaa !73
  %178 = getelementptr inbounds nuw %struct.NSVGpath, ptr %177, i32 0, i32 3
  %179 = getelementptr inbounds [4 x float], ptr %178, i64 0, i64 2
  %180 = load float, ptr %179, align 8, !tbaa !23
  %181 = getelementptr inbounds [4 x float], ptr %7, i64 0, i64 2
  %182 = load float, ptr %181, align 8, !tbaa !23
  %183 = call float @nsvg__maxf(float noundef %180, float noundef %182)
  %184 = load ptr, ptr %6, align 8, !tbaa !73
  %185 = getelementptr inbounds nuw %struct.NSVGpath, ptr %184, i32 0, i32 3
  %186 = getelementptr inbounds [4 x float], ptr %185, i64 0, i64 2
  store float %183, ptr %186, align 8, !tbaa !23
  %187 = load ptr, ptr %6, align 8, !tbaa !73
  %188 = getelementptr inbounds nuw %struct.NSVGpath, ptr %187, i32 0, i32 3
  %189 = getelementptr inbounds [4 x float], ptr %188, i64 0, i64 3
  %190 = load float, ptr %189, align 4, !tbaa !23
  %191 = getelementptr inbounds [4 x float], ptr %7, i64 0, i64 3
  %192 = load float, ptr %191, align 4, !tbaa !23
  %193 = call float @nsvg__maxf(float noundef %190, float noundef %192)
  %194 = load ptr, ptr %6, align 8, !tbaa !73
  %195 = getelementptr inbounds nuw %struct.NSVGpath, ptr %194, i32 0, i32 3
  %196 = getelementptr inbounds [4 x float], ptr %195, i64 0, i64 3
  store float %193, ptr %196, align 4, !tbaa !23
  br label %197

197:                                              ; preds = %156, %135
  br label %198

198:                                              ; preds = %197
  %199 = load i32, ptr %9, align 4, !tbaa !10
  %200 = add nsw i32 %199, 3
  store i32 %200, ptr %9, align 4, !tbaa !10
  br label %116, !llvm.loop !278

201:                                              ; preds = %116
  %202 = load ptr, ptr %3, align 8, !tbaa !27
  %203 = getelementptr inbounds nuw %struct.NSVGparser, ptr %202, i32 0, i32 5
  %204 = load ptr, ptr %203, align 8, !tbaa !86
  %205 = load ptr, ptr %6, align 8, !tbaa !73
  %206 = getelementptr inbounds nuw %struct.NSVGpath, ptr %205, i32 0, i32 4
  store ptr %204, ptr %206, align 8, !tbaa !79
  %207 = load ptr, ptr %6, align 8, !tbaa !73
  %208 = load ptr, ptr %3, align 8, !tbaa !27
  %209 = getelementptr inbounds nuw %struct.NSVGparser, ptr %208, i32 0, i32 5
  store ptr %207, ptr %209, align 8, !tbaa !86
  store i32 1, ptr %10, align 4
  br label %225

210:                                              ; preds = %60, %44
  %211 = load ptr, ptr %6, align 8, !tbaa !73
  %212 = icmp ne ptr %211, null
  br i1 %212, label %213, label %224

213:                                              ; preds = %210
  %214 = load ptr, ptr %6, align 8, !tbaa !73
  %215 = getelementptr inbounds nuw %struct.NSVGpath, ptr %214, i32 0, i32 0
  %216 = load ptr, ptr %215, align 8, !tbaa !76
  %217 = icmp ne ptr %216, null
  br i1 %217, label %218, label %222

218:                                              ; preds = %213
  %219 = load ptr, ptr %6, align 8, !tbaa !73
  %220 = getelementptr inbounds nuw %struct.NSVGpath, ptr %219, i32 0, i32 0
  %221 = load ptr, ptr %220, align 8, !tbaa !76
  call void @free(ptr noundef %221) #11
  br label %222

222:                                              ; preds = %218, %213
  %223 = load ptr, ptr %6, align 8, !tbaa !73
  call void @free(ptr noundef %223) #11
  br label %224

224:                                              ; preds = %222, %210
  store i32 0, ptr %10, align 4
  br label %225

225:                                              ; preds = %224, %201, %39, %17
  call void @llvm.lifetime.end.p0(i64 4, ptr %9) #11
  call void @llvm.lifetime.end.p0(i64 8, ptr %8) #11
  call void @llvm.lifetime.end.p0(i64 16, ptr %7) #11
  call void @llvm.lifetime.end.p0(i64 8, ptr %6) #11
  call void @llvm.lifetime.end.p0(i64 8, ptr %5) #11
  %226 = load i32, ptr %10, align 4
  switch i32 %226, label %228 [
    i32 0, label %227
    i32 1, label %227
  ]

227:                                              ; preds = %225, %225
  ret void

228:                                              ; preds = %225
  unreachable
}