; Function Attrs: nounwind uwtable
define internal fastcc void @nsvg__addPath(ptr noundef captures(none) %0, i8 noundef signext range(i8 0, 2) %1) unnamed_addr #0 {
  %3 = alloca [4 x float], align 16
  %4 = getelementptr inbounds nuw i8, ptr %0, i64 39936
  %5 = load i32, ptr %4, align 8, !tbaa !55
  %6 = sext i32 %5 to i64
  call void @llvm.lifetime.start.p0(i64 16, ptr nonnull %3) #31
  %7 = getelementptr inbounds nuw i8, ptr %0, i64 39952
  %8 = load i32, ptr %7, align 8, !tbaa !84
  %9 = icmp slt i32 %8, 4
  br i1 %9, label %102, label %10

10:                                               ; preds = %2
  %.not = icmp eq i8 %1, 0
  br i1 %.not, label %17, label %11

11:                                               ; preds = %10
  %12 = getelementptr inbounds nuw i8, ptr %0, i64 39944
  %13 = load ptr, ptr %12, align 8, !tbaa !80
  %14 = load float, ptr %13, align 4, !tbaa !28
  %15 = getelementptr inbounds nuw i8, ptr %13, i64 4
  %16 = load float, ptr %15, align 4, !tbaa !28
  tail call fastcc void @nsvg__lineTo(ptr noundef nonnull %0, float noundef %14, float noundef %16)
  %.pre = load i32, ptr %7, align 8, !tbaa !84
  br label %17

17:                                               ; preds = %11, %10
  %18 = phi i32 [ %.pre, %11 ], [ %8, %10 ]
  %19 = srem i32 %18, 3
  %.not57 = icmp eq i32 %19, 1
  br i1 %.not57, label %20, label %102

20:                                               ; preds = %17
  %calloc = tail call dereferenceable_or_null(40) ptr @calloc(i64 1, i64 40)
  %cond = icmp eq ptr %calloc, null
  br i1 %cond, label %102, label %21

21:                                               ; preds = %20
  %22 = shl nsw i32 %18, 1
  %23 = sext i32 %22 to i64
  %24 = shl nsw i64 %23, 2
  %25 = tail call noalias ptr @malloc(i64 noundef %24) #34
  store ptr %25, ptr %calloc, align 8, !tbaa !63
  %26 = icmp eq ptr %25, null
  br i1 %26, label %101, label %27

27:                                               ; preds = %21
  %28 = getelementptr inbounds nuw i8, ptr %calloc, i64 12
  store i8 %1, ptr %28, align 4, !tbaa !97
  %29 = getelementptr inbounds nuw i8, ptr %calloc, i64 8
  store i32 %18, ptr %29, align 8, !tbaa !61
  %30 = icmp sgt i32 %18, 0
  br i1 %30, label %.lr.ph, label %._crit_edge

.lr.ph:                                           ; preds = %27
  %31 = getelementptr inbounds nuw i8, ptr %0, i64 39944
  %32 = load ptr, ptr %31, align 8, !tbaa !80
  %33 = getelementptr inbounds [128 x %struct.NSVGattrib], ptr %0, i64 0, i64 %6, i32 1
  %34 = load float, ptr %33, align 4, !tbaa !28
  %35 = getelementptr inbounds nuw i8, ptr %33, i64 8
  %36 = load float, ptr %35, align 4, !tbaa !28
  %37 = getelementptr inbounds nuw i8, ptr %33, i64 16
  %38 = load float, ptr %37, align 4, !tbaa !28
  %39 = getelementptr inbounds nuw i8, ptr %33, i64 4
  %40 = load float, ptr %39, align 4, !tbaa !28
  %41 = getelementptr inbounds nuw i8, ptr %33, i64 12
  %42 = load float, ptr %41, align 4, !tbaa !28
  %43 = getelementptr inbounds nuw i8, ptr %33, i64 20
  %44 = load float, ptr %43, align 4, !tbaa !28
  %wide.trip.count = zext nneg i32 %18 to i64
  br label %53

.preheader:                                       ; preds = %53
  %.not67 = icmp eq i32 %18, 1
  br i1 %.not67, label %._crit_edge, label %.lr.ph62

.lr.ph62:                                         ; preds = %.preheader
  %45 = getelementptr inbounds nuw i8, ptr %calloc, i64 16
  %46 = getelementptr inbounds nuw i8, ptr %calloc, i64 20
  %47 = getelementptr inbounds nuw i8, ptr %3, i64 4
  %48 = getelementptr inbounds nuw i8, ptr %calloc, i64 24
  %49 = getelementptr inbounds nuw i8, ptr %3, i64 8
  %50 = getelementptr inbounds nuw i8, ptr %calloc, i64 28
  %51 = getelementptr inbounds nuw i8, ptr %3, i64 12
  %52 = add nsw i32 %18, -1
  br label %68

53:                                               ; preds = %.lr.ph, %53
  %indvars.iv = phi i64 [ 0, %.lr.ph ], [ %indvars.iv.next, %53 ]
  %54 = shl nuw nsw i64 %indvars.iv, 1
  %55 = getelementptr inbounds nuw float, ptr %25, i64 %54
  %56 = or disjoint i64 %54, 1
  %57 = getelementptr inbounds nuw float, ptr %25, i64 %56
  %58 = getelementptr inbounds nuw float, ptr %32, i64 %54
  %59 = load float, ptr %58, align 4, !tbaa !28
  %60 = getelementptr inbounds nuw float, ptr %32, i64 %56
  %61 = load float, ptr %60, align 4, !tbaa !28
  %62 = fmul float %61, %36
  %63 = tail call float @llvm.fmuladd.f32(float %59, float %34, float %62)
  %64 = fadd float %38, %63
  store float %64, ptr %55, align 4, !tbaa !28
  %65 = fmul float %61, %42
  %66 = tail call float @llvm.fmuladd.f32(float %59, float %40, float %65)
  %67 = fadd float %44, %66
  store float %67, ptr %57, align 4, !tbaa !28
  %indvars.iv.next = add nuw nsw i64 %indvars.iv, 1
  %exitcond.not = icmp eq i64 %indvars.iv.next, %wide.trip.count
  br i1 %exitcond.not, label %.preheader, label %53, !llvm.loop !259

68:                                               ; preds = %.lr.ph62, %92
  %69 = phi float [ 0.000000e+00, %.lr.ph62 ], [ %storemerge, %92 ]
  %70 = phi float [ 0.000000e+00, %.lr.ph62 ], [ %93, %92 ]
  %71 = phi float [ 0.000000e+00, %.lr.ph62 ], [ %94, %92 ]
  %72 = phi float [ 0.000000e+00, %.lr.ph62 ], [ %95, %92 ]
  %indvars.iv64 = phi i64 [ 0, %.lr.ph62 ], [ %indvars.iv.next65, %92 ]
  %.idx = shl nuw nsw i64 %indvars.iv64, 3
  %73 = getelementptr inbounds nuw i8, ptr %25, i64 %.idx
  call fastcc void @nsvg__curveBounds(ptr noundef %3, ptr noundef nonnull %73)
  %74 = icmp eq i64 %indvars.iv64, 0
  %75 = load float, ptr %3, align 16, !tbaa !28
  br i1 %74, label %76, label %80

76:                                               ; preds = %68
  store float %75, ptr %45, align 8, !tbaa !28
  %77 = load float, ptr %47, align 4, !tbaa !28
  store float %77, ptr %46, align 4, !tbaa !28
  %78 = load float, ptr %49, align 8, !tbaa !28
  store float %78, ptr %48, align 8, !tbaa !28
  %79 = load float, ptr %51, align 4, !tbaa !28
  br label %92

80:                                               ; preds = %68
  %81 = fcmp olt float %72, %75
  %82 = select i1 %81, float %72, float %75
  store float %82, ptr %45, align 8, !tbaa !28
  %83 = load float, ptr %47, align 4, !tbaa !28
  %84 = fcmp olt float %71, %83
  %85 = select i1 %84, float %71, float %83
  store float %85, ptr %46, align 4, !tbaa !28
  %86 = load float, ptr %49, align 8, !tbaa !28
  %87 = fcmp ogt float %70, %86
  %88 = select i1 %87, float %70, float %86
  store float %88, ptr %48, align 8, !tbaa !28
  %89 = load float, ptr %51, align 4, !tbaa !28
  %90 = fcmp ogt float %69, %89
  %91 = select i1 %90, float %69, float %89
  br label %92

92:                                               ; preds = %76, %80
  %storemerge = phi float [ %91, %80 ], [ %79, %76 ]
  %93 = phi float [ %88, %80 ], [ %78, %76 ]
  %94 = phi float [ %85, %80 ], [ %77, %76 ]
  %95 = phi float [ %82, %80 ], [ %75, %76 ]
  store float %storemerge, ptr %50, align 4, !tbaa !28
  %indvars.iv.next65 = add nuw nsw i64 %indvars.iv64, 3
  %96 = trunc nuw i64 %indvars.iv.next65 to i32
  %97 = icmp sgt i32 %52, %96
  br i1 %97, label %68, label %._crit_edge, !llvm.loop !260

._crit_edge:                                      ; preds = %92, %27, %.preheader
  %98 = getelementptr inbounds nuw i8, ptr %0, i64 39960
  %99 = load ptr, ptr %98, align 8, !tbaa !71
  %100 = getelementptr inbounds nuw i8, ptr %calloc, i64 32
  store ptr %99, ptr %100, align 8, !tbaa !72
  store ptr %calloc, ptr %98, align 8, !tbaa !71
  br label %102

101:                                              ; preds = %21
  tail call void @free(ptr noundef nonnull %calloc) #31
  br label %102

102:                                              ; preds = %20, %101, %17, %2, %._crit_edge
  call void @llvm.lifetime.end.p0(i64 16, ptr nonnull %3) #31
  ret void
}